---
triple:          'arm64-apple-darwin'
binary-path:     main
relocations:
  - { offsetInCU: 0x404B, offset: 0x404B, size: 0x8, addend: 0x0, symName: __ZNSt3__124__put_character_sequenceB8ue170006IcNS_11char_traitsIcEEEERNS_13basic_ostreamIT_T0_EES7_PKS4_m, symObjAddr: 0x16B0, symBinAddr: 0x100002F4C, symSize: 0x1EC }
  - { offsetInCU: 0x5BD9, offset: 0x5BD9, size: 0x8, addend: 0x0, symName: __ZNSt3__1lsB8ue170006INS_11char_traitsIcEEEERNS_13basic_ostreamIcT_EES6_PKc, symObjAddr: 0x39C, symBinAddr: 0x100001C38, symSize: 0x48 }
  - { offsetInCU: 0x5C1F, offset: 0x5C1F, size: 0x8, addend: 0x0, symName: __ZNSt3__14endlB8ue170006IcNS_11char_traitsIcEEEERNS_13basic_ostreamIT_T0_EES7_, symObjAddr: 0x410, symBinAddr: 0x100001CAC, symSize: 0x58 }
  - { offsetInCU: 0x5C5F, offset: 0x5C5F, size: 0x8, addend: 0x0, symName: __ZNSt3__122__make_exception_guardB8ue170006INS_6vectorIdNS_9allocatorIdEEE16__destroy_vectorEEENS_28__exception_guard_exceptionsIT_EES7_, symObjAddr: 0x6E0, symBinAddr: 0x100001F7C, symSize: 0x40 }
  - { offsetInCU: 0x5C94, offset: 0x5C94, size: 0x8, addend: 0x0, symName: __ZNSt3__119__allocate_at_leastB8ue170006INS_9allocatorIdEEEENS_19__allocation_resultINS_16allocator_traitsIT_E7pointerEEERS5_m, symObjAddr: 0xACC, symBinAddr: 0x100002368, symSize: 0x40 }
  - { offsetInCU: 0x5CD7, offset: 0x5CD7, size: 0x8, addend: 0x0, symName: __ZNSt3__13minB8ue170006ImEERKT_S3_S3_, symObjAddr: 0xC08, symBinAddr: 0x1000024A4, symSize: 0x2C }
  - { offsetInCU: 0x5F04, offset: 0x5F04, size: 0x8, addend: 0x0, symName: __ZNSt3__13minB8ue170006ImNS_6__lessIvvEEEERKT_S5_S5_T0_, symObjAddr: 0xCA0, symBinAddr: 0x10000253C, symSize: 0x54 }
  - { offsetInCU: 0x5FA3, offset: 0x5FA3, size: 0x8, addend: 0x0, symName: __ZNSt3__120__throw_length_errorB8ue170006EPKc, symObjAddr: 0xD7C, symBinAddr: 0x100002618, symSize: 0x64 }
  - { offsetInCU: 0x5FCD, offset: 0x5FCD, size: 0x8, addend: 0x0, symName: __ZNSt3__117__libcpp_allocateB8ue170006Emm, symObjAddr: 0xEEC, symBinAddr: 0x100002788, symSize: 0x60 }
  - { offsetInCU: 0x6027, offset: 0x6027, size: 0x8, addend: 0x0, symName: __ZNSt3__124__is_overaligned_for_newB8ue170006Em, symObjAddr: 0xF4C, symBinAddr: 0x1000027E8, symSize: 0x20 }
  - { offsetInCU: 0x6055, offset: 0x6055, size: 0x8, addend: 0x0, symName: __ZNSt3__121__libcpp_operator_newB8ue170006IJmSt11align_val_tEEEPvDpT_, symObjAddr: 0xF6C, symBinAddr: 0x100002808, symSize: 0x2C }
  - { offsetInCU: 0x60A2, offset: 0x60A2, size: 0x8, addend: 0x0, symName: __ZNSt3__121__libcpp_operator_newB8ue170006IJmEEEPvDpT_, symObjAddr: 0xF98, symBinAddr: 0x100002834, symSize: 0x24 }
  - { offsetInCU: 0x60DB, offset: 0x60DB, size: 0x8, addend: 0x0, symName: __ZNSt3__112__to_addressB8ue170006IdEEPT_S2_, symObjAddr: 0x10B4, symBinAddr: 0x100002950, symSize: 0x14 }
  - { offsetInCU: 0x6110, offset: 0x6110, size: 0x8, addend: 0x0, symName: __ZNSt3__119__libcpp_deallocateB8ue170006EPvmm, symObjAddr: 0x1568, symBinAddr: 0x100002E04, symSize: 0x60 }
  - { offsetInCU: 0x6175, offset: 0x6175, size: 0x8, addend: 0x0, symName: __ZNSt3__127__do_deallocate_handle_sizeB8ue170006IJSt11align_val_tEEEvPvmDpT_, symObjAddr: 0x15C8, symBinAddr: 0x100002E64, symSize: 0x30 }
  - { offsetInCU: 0x61C8, offset: 0x61C8, size: 0x8, addend: 0x0, symName: __ZNSt3__127__do_deallocate_handle_sizeB8ue170006IJEEEvPvmDpT_, symObjAddr: 0x15F8, symBinAddr: 0x100002E94, symSize: 0x28 }
  - { offsetInCU: 0x6206, offset: 0x6206, size: 0x8, addend: 0x0, symName: __ZNSt3__124__libcpp_operator_deleteB8ue170006IJPvSt11align_val_tEEEvDpT_, symObjAddr: 0x1620, symBinAddr: 0x100002EBC, symSize: 0x2C }
  - { offsetInCU: 0x624F, offset: 0x624F, size: 0x8, addend: 0x0, symName: __ZNSt3__124__libcpp_operator_deleteB8ue170006IJPvEEEvDpT_, symObjAddr: 0x164C, symBinAddr: 0x100002EE8, symSize: 0x24 }
  - { offsetInCU: 0x6284, offset: 0x6284, size: 0x8, addend: 0x0, symName: __ZNSt3__116__pad_and_outputB8ue170006IcNS_11char_traitsIcEEEENS_19ostreambuf_iteratorIT_T0_EES6_PKS4_S8_S8_RNS_8ios_baseES4_, symObjAddr: 0x18EC, symBinAddr: 0x100003188, symSize: 0x240 }
  - { offsetInCU: 0x6353, offset: 0x6353, size: 0x8, addend: 0x0, symName: __ZNSt3__112__to_addressB8ue170006IcEEPT_S2_, symObjAddr: 0x1E54, symBinAddr: 0x1000036F0, symSize: 0x14 }
  - { offsetInCU: 0x63BB, offset: 0x63BB, size: 0x8, addend: 0x0, symName: __ZNSt3__19use_facetB8ue170006INS_5ctypeIcEEEERKT_RKNS_6localeE, symObjAddr: 0x210C, symBinAddr: 0x1000039A8, symSize: 0x2C }
  - { offsetInCU: 0x6888, offset: 0x6888, size: 0x8, addend: 0x0, symName: __ZNSt3__118__constexpr_strlenB8ue170006EPKc, symObjAddr: 0x21A4, symBinAddr: 0x100003A40, symSize: 0x24 }
  - { offsetInCU: 0x6B8A, offset: 0x6B8A, size: 0x8, addend: 0x0, symName: __ZSt28__throw_bad_array_new_lengthB8ue170006v, symObjAddr: 0xEB8, symBinAddr: 0x100002754, symSize: 0x34 }
  - { offsetInCU: 0x932F, offset: 0x932F, size: 0x8, addend: 0x0, symName: __Z20generateNormalRandomv, symObjAddr: 0x0, symBinAddr: 0x10000189C, symSize: 0x84 }
  - { offsetInCU: 0x936B, offset: 0x936B, size: 0x8, addend: 0x0, symName: __Z14sumPathResultsRKNSt3__16vectorIdNS_9allocatorIdEEEEdd, symObjAddr: 0x84, symBinAddr: 0x100001920, symSize: 0x4C }
  - { offsetInCU: 0x93B4, offset: 0x93B4, size: 0x8, addend: 0x0, symName: __ZNKSt3__16vectorIdNS_9allocatorIdEEE4backB8ue170006Ev, symObjAddr: 0xD0, symBinAddr: 0x10000196C, symSize: 0x1C }
  - { offsetInCU: 0x93D9, offset: 0x93D9, size: 0x8, addend: 0x0, symName: __Z6simGBMddddi, symObjAddr: 0xEC, symBinAddr: 0x100001988, symSize: 0x1BC }
  - { offsetInCU: 0x948F, offset: 0x948F, size: 0x8, addend: 0x0, symName: __ZNSt3__16vectorIdNS_9allocatorIdEEEC1Em, symObjAddr: 0x2A8, symBinAddr: 0x100001B44, symSize: 0x34 }
  - { offsetInCU: 0x94CA, offset: 0x94CA, size: 0x8, addend: 0x0, symName: __ZNSt3__16vectorIdNS_9allocatorIdEEEixB8ue170006Em, symObjAddr: 0x2DC, symBinAddr: 0x100001B78, symSize: 0x24 }
  - { offsetInCU: 0x9501, offset: 0x9501, size: 0x8, addend: 0x0, symName: __ZNSt3__16vectorIdNS_9allocatorIdEEED1B8ue170006Ev, symObjAddr: 0x300, symBinAddr: 0x100001B9C, symSize: 0x2C }
  - { offsetInCU: 0x952B, offset: 0x952B, size: 0x8, addend: 0x0, symName: __Z9printPathRKNSt3__16vectorIdNS_9allocatorIdEEEEi, symObjAddr: 0x32C, symBinAddr: 0x100001BC8, symSize: 0x70 }
  - { offsetInCU: 0x9562, offset: 0x9562, size: 0x8, addend: 0x0, symName: __ZNSt3__113basic_ostreamIcNS_11char_traitsIcEEElsB8ue170006EPFRS3_S4_E, symObjAddr: 0x3E4, symBinAddr: 0x100001C80, symSize: 0x2C }
  - { offsetInCU: 0x9596, offset: 0x9596, size: 0x8, addend: 0x0, symName: _main, symObjAddr: 0x468, symBinAddr: 0x100001D04, symSize: 0x168 }
  - { offsetInCU: 0x9653, offset: 0x9653, size: 0x8, addend: 0x0, symName: __ZNSt3__16vectorIdNS_9allocatorIdEEEC2Em, symObjAddr: 0x5D0, symBinAddr: 0x100001E6C, symSize: 0xD4 }
  - { offsetInCU: 0x96AD, offset: 0x96AD, size: 0x8, addend: 0x0, symName: __ZNSt3__117__compressed_pairIPdNS_9allocatorIdEEEC1B8ue170006IDnNS_18__default_init_tagEEEOT_OT0_, symObjAddr: 0x6A4, symBinAddr: 0x100001F40, symSize: 0x3C }
  - { offsetInCU: 0x9705, offset: 0x9705, size: 0x8, addend: 0x0, symName: __ZNSt3__16vectorIdNS_9allocatorIdEEE16__destroy_vectorC1B8ue170006ERS3_, symObjAddr: 0x720, symBinAddr: 0x100001FBC, symSize: 0x34 }
  - { offsetInCU: 0x973E, offset: 0x973E, size: 0x8, addend: 0x0, symName: __ZNSt3__16vectorIdNS_9allocatorIdEEE11__vallocateB8ue170006Em, symObjAddr: 0x754, symBinAddr: 0x100001FF0, symSize: 0xAC }
  - { offsetInCU: 0x9782, offset: 0x9782, size: 0x8, addend: 0x0, symName: __ZNSt3__16vectorIdNS_9allocatorIdEEE18__construct_at_endEm, symObjAddr: 0x800, symBinAddr: 0x10000209C, symSize: 0xC8 }
  - { offsetInCU: 0x97F4, offset: 0x97F4, size: 0x8, addend: 0x0, symName: __ZNSt3__128__exception_guard_exceptionsINS_6vectorIdNS_9allocatorIdEEE16__destroy_vectorEE10__completeB8ue170006Ev, symObjAddr: 0x8C8, symBinAddr: 0x100002164, symSize: 0x1C }
  - { offsetInCU: 0x981A, offset: 0x981A, size: 0x8, addend: 0x0, symName: __ZNSt3__128__exception_guard_exceptionsINS_6vectorIdNS_9allocatorIdEEE16__destroy_vectorEED1B8ue170006Ev, symObjAddr: 0x8E4, symBinAddr: 0x100002180, symSize: 0x2C }
  - { offsetInCU: 0x9844, offset: 0x9844, size: 0x8, addend: 0x0, symName: __ZNSt3__117__compressed_pairIPdNS_9allocatorIdEEEC2B8ue170006IDnNS_18__default_init_tagEEEOT_OT0_, symObjAddr: 0x910, symBinAddr: 0x1000021AC, symSize: 0x40 }
  - { offsetInCU: 0x989C, offset: 0x989C, size: 0x8, addend: 0x0, symName: __ZNSt3__122__compressed_pair_elemIPdLi0ELb0EEC2B8ue170006IDnvEEOT_, symObjAddr: 0x950, symBinAddr: 0x1000021EC, symSize: 0x1C }
  - { offsetInCU: 0x98DE, offset: 0x98DE, size: 0x8, addend: 0x0, symName: __ZNSt3__122__compressed_pair_elemINS_9allocatorIdEELi1ELb1EEC2B8ue170006ENS_18__default_init_tagE, symObjAddr: 0x96C, symBinAddr: 0x100002208, symSize: 0x2C }
  - { offsetInCU: 0x9913, offset: 0x9913, size: 0x8, addend: 0x0, symName: __ZNSt3__19allocatorIdEC2B8ue170006Ev, symObjAddr: 0x998, symBinAddr: 0x100002234, symSize: 0x2C }
  - { offsetInCU: 0x993D, offset: 0x993D, size: 0x8, addend: 0x0, symName: __ZNSt3__116__non_trivial_ifILb1ENS_9allocatorIdEEEC2B8ue170006Ev, symObjAddr: 0x9C4, symBinAddr: 0x100002260, symSize: 0x14 }
  - { offsetInCU: 0x9967, offset: 0x9967, size: 0x8, addend: 0x0, symName: __ZNSt3__128__exception_guard_exceptionsINS_6vectorIdNS_9allocatorIdEEE16__destroy_vectorEEC1B8ue170006ES5_, symObjAddr: 0x9D8, symBinAddr: 0x100002274, symSize: 0x34 }
  - { offsetInCU: 0x999F, offset: 0x999F, size: 0x8, addend: 0x0, symName: __ZNSt3__128__exception_guard_exceptionsINS_6vectorIdNS_9allocatorIdEEE16__destroy_vectorEEC2B8ue170006ES5_, symObjAddr: 0xA0C, symBinAddr: 0x1000022A8, symSize: 0x24 }
  - { offsetInCU: 0x99D7, offset: 0x99D7, size: 0x8, addend: 0x0, symName: __ZNSt3__16vectorIdNS_9allocatorIdEEE16__destroy_vectorC2B8ue170006ERS3_, symObjAddr: 0xA30, symBinAddr: 0x1000022CC, symSize: 0x20 }
  - { offsetInCU: 0x9A10, offset: 0x9A10, size: 0x8, addend: 0x0, symName: __ZNKSt3__16vectorIdNS_9allocatorIdEEE8max_sizeEv, symObjAddr: 0xA50, symBinAddr: 0x1000022EC, symSize: 0x60 }
  - { offsetInCU: 0x9A38, offset: 0x9A38, size: 0x8, addend: 0x0, symName: __ZNKSt3__16vectorIdNS_9allocatorIdEEE20__throw_length_errorB8ue170006Ev, symObjAddr: 0xAB0, symBinAddr: 0x10000234C, symSize: 0x1C }
  - { offsetInCU: 0x9A5E, offset: 0x9A5E, size: 0x8, addend: 0x0, symName: __ZNSt3__16vectorIdNS_9allocatorIdEEE7__allocB8ue170006Ev, symObjAddr: 0xB0C, symBinAddr: 0x1000023A8, symSize: 0x28 }
  - { offsetInCU: 0x9A84, offset: 0x9A84, size: 0x8, addend: 0x0, symName: __ZNSt3__16vectorIdNS_9allocatorIdEEE9__end_capB8ue170006Ev, symObjAddr: 0xB34, symBinAddr: 0x1000023D0, symSize: 0x28 }
  - { offsetInCU: 0x9AAA, offset: 0x9AAA, size: 0x8, addend: 0x0, symName: __ZNKSt3__16vectorIdNS_9allocatorIdEEE14__annotate_newB8ue170006Em, symObjAddr: 0xB5C, symBinAddr: 0x1000023F8, symSize: 0xAC }
  - { offsetInCU: 0x9AE9, offset: 0x9AE9, size: 0x8, addend: 0x0, symName: __ZNSt3__116allocator_traitsINS_9allocatorIdEEE8max_sizeB8ue170006IS2_vEEmRKS2_, symObjAddr: 0xC34, symBinAddr: 0x1000024D0, symSize: 0x24 }
  - { offsetInCU: 0x9B17, offset: 0x9B17, size: 0x8, addend: 0x0, symName: __ZNKSt3__16vectorIdNS_9allocatorIdEEE7__allocB8ue170006Ev, symObjAddr: 0xC58, symBinAddr: 0x1000024F4, symSize: 0x28 }
  - { offsetInCU: 0x9B3D, offset: 0x9B3D, size: 0x8, addend: 0x0, symName: __ZNSt3__114numeric_limitsIlE3maxB8ue170006Ev, symObjAddr: 0xC80, symBinAddr: 0x10000251C, symSize: 0x14 }
  - { offsetInCU: 0x9B65, offset: 0x9B65, size: 0x8, addend: 0x0, symName: __ZNKSt3__16__lessIvvEclB8ue170006ImmEEbRKT_RKT0_, symObjAddr: 0xCF4, symBinAddr: 0x100002590, symSize: 0x34 }
  - { offsetInCU: 0x9BB9, offset: 0x9BB9, size: 0x8, addend: 0x0, symName: __ZNKSt3__19allocatorIdE8max_sizeB8ue170006Ev, symObjAddr: 0xD28, symBinAddr: 0x1000025C4, symSize: 0x14 }
  - { offsetInCU: 0x9BDF, offset: 0x9BDF, size: 0x8, addend: 0x0, symName: __ZNKSt3__117__compressed_pairIPdNS_9allocatorIdEEE6secondB8ue170006Ev, symObjAddr: 0xD3C, symBinAddr: 0x1000025D8, symSize: 0x24 }
  - { offsetInCU: 0x9C05, offset: 0x9C05, size: 0x8, addend: 0x0, symName: __ZNKSt3__122__compressed_pair_elemINS_9allocatorIdEELi1ELb1EE5__getB8ue170006Ev, symObjAddr: 0xD60, symBinAddr: 0x1000025FC, symSize: 0x14 }
  - { offsetInCU: 0x9C2B, offset: 0x9C2B, size: 0x8, addend: 0x0, symName: __ZNSt3__123__libcpp_numeric_limitsIlLb1EE3maxB8ue170006Ev, symObjAddr: 0xD74, symBinAddr: 0x100002610, symSize: 0x8 }
  - { offsetInCU: 0x9C3F, offset: 0x9C3F, size: 0x8, addend: 0x0, symName: __ZNSt12length_errorC1B8ue170006EPKc, symObjAddr: 0xDE0, symBinAddr: 0x10000267C, symSize: 0x34 }
  - { offsetInCU: 0x9C77, offset: 0x9C77, size: 0x8, addend: 0x0, symName: __ZNSt12length_errorC2B8ue170006EPKc, symObjAddr: 0xE14, symBinAddr: 0x1000026B0, symSize: 0x4C }
  - { offsetInCU: 0x9CAF, offset: 0x9CAF, size: 0x8, addend: 0x0, symName: __ZNSt3__19allocatorIdE8allocateB8ue170006Em, symObjAddr: 0xE60, symBinAddr: 0x1000026FC, symSize: 0x58 }
  - { offsetInCU: 0x9CE3, offset: 0x9CE3, size: 0x8, addend: 0x0, symName: __ZNSt3__117__compressed_pairIPdNS_9allocatorIdEEE6secondB8ue170006Ev, symObjAddr: 0xFBC, symBinAddr: 0x100002858, symSize: 0x24 }
  - { offsetInCU: 0x9D09, offset: 0x9D09, size: 0x8, addend: 0x0, symName: __ZNSt3__122__compressed_pair_elemINS_9allocatorIdEELi1ELb1EE5__getB8ue170006Ev, symObjAddr: 0xFE0, symBinAddr: 0x10000287C, symSize: 0x14 }
  - { offsetInCU: 0x9D2F, offset: 0x9D2F, size: 0x8, addend: 0x0, symName: __ZNSt3__117__compressed_pairIPdNS_9allocatorIdEEE5firstB8ue170006Ev, symObjAddr: 0xFF4, symBinAddr: 0x100002890, symSize: 0x24 }
  - { offsetInCU: 0x9D55, offset: 0x9D55, size: 0x8, addend: 0x0, symName: __ZNSt3__122__compressed_pair_elemIPdLi0ELb0EE5__getB8ue170006Ev, symObjAddr: 0x1018, symBinAddr: 0x1000028B4, symSize: 0x14 }
  - { offsetInCU: 0x9D7B, offset: 0x9D7B, size: 0x8, addend: 0x0, symName: __ZNKSt3__16vectorIdNS_9allocatorIdEEE31__annotate_contiguous_containerB8ue170006EPKvS5_S5_S5_, symObjAddr: 0x102C, symBinAddr: 0x1000028C8, symSize: 0x20 }
  - { offsetInCU: 0x9DD1, offset: 0x9DD1, size: 0x8, addend: 0x0, symName: __ZNKSt3__16vectorIdNS_9allocatorIdEEE4dataB8ue170006Ev, symObjAddr: 0x104C, symBinAddr: 0x1000028E8, symSize: 0x28 }
  - { offsetInCU: 0x9DF7, offset: 0x9DF7, size: 0x8, addend: 0x0, symName: __ZNKSt3__16vectorIdNS_9allocatorIdEEE8capacityB8ue170006Ev, symObjAddr: 0x1074, symBinAddr: 0x100002910, symSize: 0x40 }
  - { offsetInCU: 0x9E1D, offset: 0x9E1D, size: 0x8, addend: 0x0, symName: __ZNKSt3__16vectorIdNS_9allocatorIdEEE9__end_capB8ue170006Ev, symObjAddr: 0x10C8, symBinAddr: 0x100002964, symSize: 0x28 }
  - { offsetInCU: 0x9E43, offset: 0x9E43, size: 0x8, addend: 0x0, symName: __ZNKSt3__117__compressed_pairIPdNS_9allocatorIdEEE5firstB8ue170006Ev, symObjAddr: 0x10F0, symBinAddr: 0x10000298C, symSize: 0x24 }
  - { offsetInCU: 0x9E69, offset: 0x9E69, size: 0x8, addend: 0x0, symName: __ZNKSt3__122__compressed_pair_elemIPdLi0ELb0EE5__getB8ue170006Ev, symObjAddr: 0x1114, symBinAddr: 0x1000029B0, symSize: 0x14 }
  - { offsetInCU: 0x9EA8, offset: 0x9EA8, size: 0x8, addend: 0x0, symName: __ZNSt3__16vectorIdNS_9allocatorIdEEE21_ConstructTransactionC1B8ue170006ERS3_m, symObjAddr: 0x1128, symBinAddr: 0x1000029C4, symSize: 0x3C }
  - { offsetInCU: 0x9EF0, offset: 0x9EF0, size: 0x8, addend: 0x0, symName: __ZNSt3__116allocator_traitsINS_9allocatorIdEEE9constructB8ue170006IdJEvEEvRS2_PT_DpOT0_, symObjAddr: 0x1164, symBinAddr: 0x100002A00, symSize: 0x2C }
  - { offsetInCU: 0x9F32, offset: 0x9F32, size: 0x8, addend: 0x0, symName: __ZNSt3__16vectorIdNS_9allocatorIdEEE21_ConstructTransactionD1B8ue170006Ev, symObjAddr: 0x1190, symBinAddr: 0x100002A2C, symSize: 0x2C }
  - { offsetInCU: 0x9F5C, offset: 0x9F5C, size: 0x8, addend: 0x0, symName: __ZNSt3__16vectorIdNS_9allocatorIdEEE21_ConstructTransactionC2B8ue170006ERS3_m, symObjAddr: 0x11BC, symBinAddr: 0x100002A58, symSize: 0x44 }
  - { offsetInCU: 0x9FA4, offset: 0x9FA4, size: 0x8, addend: 0x0, symName: __ZNSt3__19allocatorIdE9constructB8ue170006IdJEEEvPT_DpOT0_, symObjAddr: 0x1200, symBinAddr: 0x100002A9C, symSize: 0x20 }
  - { offsetInCU: 0x9FE6, offset: 0x9FE6, size: 0x8, addend: 0x0, symName: __ZNSt3__16vectorIdNS_9allocatorIdEEE21_ConstructTransactionD2B8ue170006Ev, symObjAddr: 0x1220, symBinAddr: 0x100002ABC, symSize: 0x20 }
  - { offsetInCU: 0xA010, offset: 0xA010, size: 0x8, addend: 0x0, symName: __ZNSt3__128__exception_guard_exceptionsINS_6vectorIdNS_9allocatorIdEEE16__destroy_vectorEED2B8ue170006Ev, symObjAddr: 0x1240, symBinAddr: 0x100002ADC, symSize: 0x50 }
  - { offsetInCU: 0xA03A, offset: 0xA03A, size: 0x8, addend: 0x0, symName: __ZNSt3__16vectorIdNS_9allocatorIdEEE16__destroy_vectorclB8ue170006Ev, symObjAddr: 0x1290, symBinAddr: 0x100002B2C, symSize: 0x90 }
  - { offsetInCU: 0xA060, offset: 0xA060, size: 0x8, addend: 0x0, symName: __ZNSt3__16vectorIdNS_9allocatorIdEEE7__clearB8ue170006Ev, symObjAddr: 0x1320, symBinAddr: 0x100002BBC, symSize: 0x28 }
  - { offsetInCU: 0xA086, offset: 0xA086, size: 0x8, addend: 0x0, symName: __ZNKSt3__16vectorIdNS_9allocatorIdEEE17__annotate_deleteB8ue170006Ev, symObjAddr: 0x1348, symBinAddr: 0x100002BE4, symSize: 0xB8 }
  - { offsetInCU: 0xA0AC, offset: 0xA0AC, size: 0x8, addend: 0x0, symName: __ZNSt3__116allocator_traitsINS_9allocatorIdEEE10deallocateB8ue170006ERS2_Pdm, symObjAddr: 0x1400, symBinAddr: 0x100002C9C, symSize: 0x34 }
  - { offsetInCU: 0xA0EE, offset: 0xA0EE, size: 0x8, addend: 0x0, symName: __ZNSt3__16vectorIdNS_9allocatorIdEEE22__base_destruct_at_endB8ue170006EPd, symObjAddr: 0x1434, symBinAddr: 0x100002CD0, symSize: 0x8C }
  - { offsetInCU: 0xA132, offset: 0xA132, size: 0x8, addend: 0x0, symName: __ZNSt3__116allocator_traitsINS_9allocatorIdEEE7destroyB8ue170006IdvEEvRS2_PT_, symObjAddr: 0x14C0, symBinAddr: 0x100002D5C, symSize: 0x2C }
  - { offsetInCU: 0xA16F, offset: 0xA16F, size: 0x8, addend: 0x0, symName: __ZNSt3__19allocatorIdE7destroyB8ue170006EPd, symObjAddr: 0x14EC, symBinAddr: 0x100002D88, symSize: 0x14 }
  - { offsetInCU: 0xA1A3, offset: 0xA1A3, size: 0x8, addend: 0x0, symName: __ZNKSt3__16vectorIdNS_9allocatorIdEEE4sizeB8ue170006Ev, symObjAddr: 0x1500, symBinAddr: 0x100002D9C, symSize: 0x28 }
  - { offsetInCU: 0xA1C9, offset: 0xA1C9, size: 0x8, addend: 0x0, symName: __ZNSt3__19allocatorIdE10deallocateB8ue170006EPdm, symObjAddr: 0x1528, symBinAddr: 0x100002DC4, symSize: 0x40 }
  - { offsetInCU: 0xA20B, offset: 0xA20B, size: 0x8, addend: 0x0, symName: __ZNSt3__16vectorIdNS_9allocatorIdEEED2B8ue170006Ev, symObjAddr: 0x1670, symBinAddr: 0x100002F0C, symSize: 0x40 }
  - { offsetInCU: 0xA235, offset: 0xA235, size: 0x8, addend: 0x0, symName: __ZNSt3__111char_traitsIcE6lengthB8ue170006EPKc, symObjAddr: 0x189C, symBinAddr: 0x100003138, symSize: 0x34 }
  - { offsetInCU: 0xA276, offset: 0xA276, size: 0x8, addend: 0x0, symName: __ZNKSt3__113basic_ostreamIcNS_11char_traitsIcEEE6sentrycvbB8ue170006Ev, symObjAddr: 0x18D0, symBinAddr: 0x10000316C, symSize: 0x1C }
  - { offsetInCU: 0xA29C, offset: 0xA29C, size: 0x8, addend: 0x0, symName: __ZNSt3__119ostreambuf_iteratorIcNS_11char_traitsIcEEEC1B8ue170006ERNS_13basic_ostreamIcS2_EE, symObjAddr: 0x1B2C, symBinAddr: 0x1000033C8, symSize: 0x34 }
  - { offsetInCU: 0xA2D4, offset: 0xA2D4, size: 0x8, addend: 0x0, symName: __ZNKSt3__18ios_base5flagsB8ue170006Ev, symObjAddr: 0x1B60, symBinAddr: 0x1000033FC, symSize: 0x18 }
  - { offsetInCU: 0xA2FC, offset: 0xA2FC, size: 0x8, addend: 0x0, symName: __ZNKSt3__19basic_iosIcNS_11char_traitsIcEEE4fillB8ue170006Ev, symObjAddr: 0x1B78, symBinAddr: 0x100003414, symSize: 0x64 }
  - { offsetInCU: 0xA324, offset: 0xA324, size: 0x8, addend: 0x0, symName: __ZNKSt3__119ostreambuf_iteratorIcNS_11char_traitsIcEEE6failedB8ue170006Ev, symObjAddr: 0x1BDC, symBinAddr: 0x100003478, symSize: 0x24 }
  - { offsetInCU: 0xA34A, offset: 0xA34A, size: 0x8, addend: 0x0, symName: __ZNSt3__19basic_iosIcNS_11char_traitsIcEEE8setstateB8ue170006Ej, symObjAddr: 0x1C00, symBinAddr: 0x10000349C, symSize: 0x2C }
  - { offsetInCU: 0xA37F, offset: 0xA37F, size: 0x8, addend: 0x0, symName: __ZNKSt3__18ios_base5widthB8ue170006Ev, symObjAddr: 0x1C2C, symBinAddr: 0x1000034C8, symSize: 0x18 }
  - { offsetInCU: 0xA3A7, offset: 0xA3A7, size: 0x8, addend: 0x0, symName: __ZNSt3__115basic_streambufIcNS_11char_traitsIcEEE5sputnB8ue170006EPKcl, symObjAddr: 0x1C44, symBinAddr: 0x1000034E0, symSize: 0x3C }
  - { offsetInCU: 0xA3E9, offset: 0xA3E9, size: 0x8, addend: 0x0, symName: __ZNSt3__112basic_stringIcNS_11char_traitsIcEENS_9allocatorIcEEEC1B8ue170006Emc, symObjAddr: 0x1C80, symBinAddr: 0x10000351C, symSize: 0x3C }
  - { offsetInCU: 0xA431, offset: 0xA431, size: 0x8, addend: 0x0, symName: __ZNSt3__112basic_stringIcNS_11char_traitsIcEENS_9allocatorIcEEE4dataB8ue170006Ev, symObjAddr: 0x1CBC, symBinAddr: 0x100003558, symSize: 0x28 }
  - { offsetInCU: 0xA457, offset: 0xA457, size: 0x8, addend: 0x0, symName: __ZNSt3__18ios_base5widthB8ue170006El, symObjAddr: 0x1CE4, symBinAddr: 0x100003580, symSize: 0x2C }
  - { offsetInCU: 0xA49D, offset: 0xA49D, size: 0x8, addend: 0x0, symName: __ZNSt3__112basic_stringIcNS_11char_traitsIcEENS_9allocatorIcEEEC2B8ue170006Emc, symObjAddr: 0x1D10, symBinAddr: 0x1000035AC, symSize: 0x4C }
  - { offsetInCU: 0xA4E5, offset: 0xA4E5, size: 0x8, addend: 0x0, symName: __ZNSt3__117__compressed_pairINS_12basic_stringIcNS_11char_traitsIcEENS_9allocatorIcEEE5__repES5_EC1B8ue170006INS_18__default_init_tagESA_EEOT_OT0_, symObjAddr: 0x1D5C, symBinAddr: 0x1000035F8, symSize: 0x3C }
  - { offsetInCU: 0xA53D, offset: 0xA53D, size: 0x8, addend: 0x0, symName: __ZNSt3__117__compressed_pairINS_12basic_stringIcNS_11char_traitsIcEENS_9allocatorIcEEE5__repES5_EC2B8ue170006INS_18__default_init_tagESA_EEOT_OT0_, symObjAddr: 0x1D98, symBinAddr: 0x100003634, symSize: 0x3C }
  - { offsetInCU: 0xA595, offset: 0xA595, size: 0x8, addend: 0x0, symName: __ZNSt3__122__compressed_pair_elemINS_12basic_stringIcNS_11char_traitsIcEENS_9allocatorIcEEE5__repELi0ELb0EEC2B8ue170006ENS_18__default_init_tagE, symObjAddr: 0x1DD4, symBinAddr: 0x100003670, symSize: 0x14 }
  - { offsetInCU: 0xA5CA, offset: 0xA5CA, size: 0x8, addend: 0x0, symName: __ZNSt3__122__compressed_pair_elemINS_9allocatorIcEELi1ELb1EEC2B8ue170006ENS_18__default_init_tagE, symObjAddr: 0x1DE8, symBinAddr: 0x100003684, symSize: 0x2C }
  - { offsetInCU: 0xA5FF, offset: 0xA5FF, size: 0x8, addend: 0x0, symName: __ZNSt3__19allocatorIcEC2B8ue170006Ev, symObjAddr: 0x1E14, symBinAddr: 0x1000036B0, symSize: 0x2C }
  - { offsetInCU: 0xA629, offset: 0xA629, size: 0x8, addend: 0x0, symName: __ZNSt3__116__non_trivial_ifILb1ENS_9allocatorIcEEEC2B8ue170006Ev, symObjAddr: 0x1E40, symBinAddr: 0x1000036DC, symSize: 0x14 }
  - { offsetInCU: 0xA653, offset: 0xA653, size: 0x8, addend: 0x0, symName: __ZNSt3__112basic_stringIcNS_11char_traitsIcEENS_9allocatorIcEEE13__get_pointerB8ue170006Ev, symObjAddr: 0x1E68, symBinAddr: 0x100003704, symSize: 0x54 }
  - { offsetInCU: 0xA679, offset: 0xA679, size: 0x8, addend: 0x0, symName: __ZNKSt3__112basic_stringIcNS_11char_traitsIcEENS_9allocatorIcEEE9__is_longB8ue170006Ev, symObjAddr: 0x1EBC, symBinAddr: 0x100003758, symSize: 0x38 }
  - { offsetInCU: 0xA69F, offset: 0xA69F, size: 0x8, addend: 0x0, symName: __ZNSt3__112basic_stringIcNS_11char_traitsIcEENS_9allocatorIcEEE18__get_long_pointerB8ue170006Ev, symObjAddr: 0x1EF4, symBinAddr: 0x100003790, symSize: 0x28 }
  - { offsetInCU: 0xA6C5, offset: 0xA6C5, size: 0x8, addend: 0x0, symName: __ZNSt3__112basic_stringIcNS_11char_traitsIcEENS_9allocatorIcEEE19__get_short_pointerB8ue170006Ev, symObjAddr: 0x1F1C, symBinAddr: 0x1000037B8, symSize: 0x28 }
  - { offsetInCU: 0xA6EB, offset: 0xA6EB, size: 0x8, addend: 0x0, symName: __ZNKSt3__117__compressed_pairINS_12basic_stringIcNS_11char_traitsIcEENS_9allocatorIcEEE5__repES5_E5firstB8ue170006Ev, symObjAddr: 0x1F44, symBinAddr: 0x1000037E0, symSize: 0x24 }
  - { offsetInCU: 0xA711, offset: 0xA711, size: 0x8, addend: 0x0, symName: __ZNKSt3__122__compressed_pair_elemINS_12basic_stringIcNS_11char_traitsIcEENS_9allocatorIcEEE5__repELi0ELb0EE5__getB8ue170006Ev, symObjAddr: 0x1F68, symBinAddr: 0x100003804, symSize: 0x14 }
  - { offsetInCU: 0xA737, offset: 0xA737, size: 0x8, addend: 0x0, symName: __ZNSt3__117__compressed_pairINS_12basic_stringIcNS_11char_traitsIcEENS_9allocatorIcEEE5__repES5_E5firstB8ue170006Ev, symObjAddr: 0x1F7C, symBinAddr: 0x100003818, symSize: 0x24 }
  - { offsetInCU: 0xA75D, offset: 0xA75D, size: 0x8, addend: 0x0, symName: __ZNSt3__122__compressed_pair_elemINS_12basic_stringIcNS_11char_traitsIcEENS_9allocatorIcEEE5__repELi0ELb0EE5__getB8ue170006Ev, symObjAddr: 0x1FA0, symBinAddr: 0x10000383C, symSize: 0x14 }
  - { offsetInCU: 0xA783, offset: 0xA783, size: 0x8, addend: 0x0, symName: __ZNSt3__114pointer_traitsIPcE10pointer_toB8ue170006ERc, symObjAddr: 0x1FB4, symBinAddr: 0x100003850, symSize: 0x14 }
  - { offsetInCU: 0xA7A6, offset: 0xA7A6, size: 0x8, addend: 0x0, symName: __ZNSt3__119ostreambuf_iteratorIcNS_11char_traitsIcEEEC2B8ue170006ERNS_13basic_ostreamIcS2_EE, symObjAddr: 0x1FC8, symBinAddr: 0x100003864, symSize: 0x54 }
  - { offsetInCU: 0xA7DE, offset: 0xA7DE, size: 0x8, addend: 0x0, symName: __ZNKSt3__19basic_iosIcNS_11char_traitsIcEEE5rdbufB8ue170006Ev, symObjAddr: 0x201C, symBinAddr: 0x1000038B8, symSize: 0x24 }
  - { offsetInCU: 0xA806, offset: 0xA806, size: 0x8, addend: 0x0, symName: __ZNKSt3__18ios_base5rdbufB8ue170006Ev, symObjAddr: 0x2040, symBinAddr: 0x1000038DC, symSize: 0x18 }
  - { offsetInCU: 0xA82C, offset: 0xA82C, size: 0x8, addend: 0x0, symName: __ZNSt3__111char_traitsIcE11eq_int_typeB8ue170006Eii, symObjAddr: 0x2058, symBinAddr: 0x1000038F4, symSize: 0x28 }
  - { offsetInCU: 0xA85F, offset: 0xA85F, size: 0x8, addend: 0x0, symName: __ZNSt3__111char_traitsIcE3eofB8ue170006Ev, symObjAddr: 0x2080, symBinAddr: 0x10000391C, symSize: 0x8 }
  - { offsetInCU: 0xA873, offset: 0xA873, size: 0x8, addend: 0x0, symName: __ZNKSt3__19basic_iosIcNS_11char_traitsIcEEE5widenB8ue170006Ec, symObjAddr: 0x2088, symBinAddr: 0x100003924, symSize: 0x84 }
  - { offsetInCU: 0xA8E1, offset: 0xA8E1, size: 0x8, addend: 0x0, symName: __ZNKSt3__15ctypeIcE5widenB8ue170006Ec, symObjAddr: 0x2138, symBinAddr: 0x1000039D4, symSize: 0x38 }
  - { offsetInCU: 0xA916, offset: 0xA916, size: 0x8, addend: 0x0, symName: __ZNSt3__18ios_base8setstateB8ue170006Ej, symObjAddr: 0x2170, symBinAddr: 0x100003A0C, symSize: 0x34 }
...
